; Function Attrs: null_pointer_is_valid sspstrong uwtable
define internal ptr @ssl_src_value(ptr noundef %0) #0 {
  %2 = tail call ptr @wmem_file_scope()
  %3 = load i32, ptr @proto_tls, align 4
  %4 = getelementptr inbounds nuw i8, ptr %0, i64 376
  %5 = load i8, ptr %4, align 8
  %6 = zext i8 %5 to i32
  %7 = tail call ptr @p_get_proto_data(ptr noundef %2, ptr noundef %0, i32 noundef %3, i32 noundef %6)
  %8 = icmp eq ptr %7, null
  %9 = getelementptr inbounds nuw i8, ptr %0, i64 284
  %10 = getelementptr inbounds nuw i8, ptr %7, i64 16
  %.0.in.in.in = select i1 %8, ptr %9, ptr %10
  %.0.in.in = load i32, ptr %.0.in.in.in, align 4
  %.0.in = zext i32 %.0.in.in to i64
  %.0 = inttoptr i64 %.0.in to ptr
  ret ptr %.0
}